target datalayout = "e-m:e-p270:32:32-p271:32:32-p272:64:64-i64:64-i128:128-f80:128-n8:16:32:64-S128"
target triple = "x86_64-pc-linux-gnu"

%struct.nghttp2_hd_deflater = type { %struct.nghttp2_hd_context, %struct.nghttp2_hd_map, i64, i64, i8 }
%struct.nghttp2_hd_context = type { %struct.nghttp2_hd_ringbuf, ptr, i64, i64, i32, i8 }
%struct.nghttp2_hd_ringbuf = type { ptr, i64, i64, i64 }
%struct.nghttp2_hd_map = type { [128 x ptr] }
%struct.nghttp2_bufs = type { ptr, ptr, ptr, i64, i64, i64, i64, i64 }

; Function Attrs: nounwind uwtable
define i64 @nghttp2_hd_deflate_hd_vec2(ptr noundef %0, ptr noundef %1, i64 noundef %2, ptr noundef %3, i64 noundef %4) #0 {
  %6 = alloca i64, align 8
  %7 = alloca ptr, align 8
  %8 = alloca ptr, align 8
  %9 = alloca i64, align 8
  %10 = alloca ptr, align 8
  %11 = alloca i64, align 8
  %12 = alloca %struct.nghttp2_bufs, align 8
  %13 = alloca i32, align 4
  %14 = alloca ptr, align 8
  %15 = alloca i64, align 8
  %16 = alloca i32, align 4
  store ptr %0, ptr %7, align 8, !tbaa !35
  store ptr %1, ptr %8, align 8, !tbaa !8
  store i64 %2, ptr %9, align 8, !tbaa !37
  store ptr %3, ptr %10, align 8, !tbaa !8
  store i64 %4, ptr %11, align 8, !tbaa !37
  call void @llvm.lifetime.start.p0(i64 64, ptr %12) #8
  call void @llvm.lifetime.start.p0(i64 4, ptr %13) #8
  call void @llvm.lifetime.start.p0(i64 8, ptr %14) #8
  call void @llvm.lifetime.start.p0(i64 8, ptr %15) #8
  %17 = load ptr, ptr %7, align 8, !tbaa !35
  %18 = getelementptr inbounds nuw %struct.nghttp2_hd_deflater, ptr %17, i32 0, i32 0
  %19 = getelementptr inbounds nuw %struct.nghttp2_hd_context, ptr %18, i32 0, i32 1
  %20 = load ptr, ptr %19, align 8, !tbaa !87
  store ptr %20, ptr %14, align 8, !tbaa !8
  %21 = load ptr, ptr %8, align 8, !tbaa !8
  %22 = load i64, ptr %9, align 8, !tbaa !37
  %23 = load ptr, ptr %14, align 8, !tbaa !8
  %24 = call i32 @nghttp2_bufs_wrap_init2(ptr noundef %12, ptr noundef %21, i64 noundef %22, ptr noundef %23)
  store i32 %24, ptr %13, align 4, !tbaa !12
  %25 = load i32, ptr %13, align 4, !tbaa !12
  %26 = icmp ne i32 %25, 0
  br i1 %26, label %27, label %30

27:                                               ; preds = %5
  %28 = load i32, ptr %13, align 4, !tbaa !12
  %29 = sext i32 %28 to i64
  store i64 %29, ptr %6, align 8
  store i32 1, ptr %16, align 4
  br label %47

30:                                               ; preds = %5
  %31 = load ptr, ptr %7, align 8, !tbaa !35
  %32 = load ptr, ptr %10, align 8, !tbaa !8
  %33 = load i64, ptr %11, align 8, !tbaa !37
  %34 = call i32 @nghttp2_hd_deflate_hd_bufs(ptr noundef %31, ptr noundef %12, ptr noundef %32, i64 noundef %33)
  store i32 %34, ptr %13, align 4, !tbaa !12
  %35 = call i64 @nghttp2_bufs_len(ptr noundef %12)
  store i64 %35, ptr %15, align 8, !tbaa !37
  call void @nghttp2_bufs_wrap_free(ptr noundef %12)
  %36 = load i32, ptr %13, align 4, !tbaa !12
  %37 = icmp eq i32 %36, -502
  br i1 %37, label %38, label %39

38:                                               ; preds = %30
  store i64 -525, ptr %6, align 8
  store i32 1, ptr %16, align 4
  br label %47

39:                                               ; preds = %30
  %40 = load i32, ptr %13, align 4, !tbaa !12
  %41 = icmp ne i32 %40, 0
  br i1 %41, label %42, label %45

42:                                               ; preds = %39
  %43 = load i32, ptr %13, align 4, !tbaa !12
  %44 = sext i32 %43 to i64
  store i64 %44, ptr %6, align 8
  store i32 1, ptr %16, align 4
  br label %47

45:                                               ; preds = %39
  %46 = load i64, ptr %15, align 8, !tbaa !37
  store i64 %46, ptr %6, align 8
  store i32 1, ptr %16, align 4
  br label %47

47:                                               ; preds = %45, %42, %38, %27
  call void @llvm.lifetime.end.p0(i64 8, ptr %15) #8
  call void @llvm.lifetime.end.p0(i64 8, ptr %14) #8
  call void @llvm.lifetime.end.p0(i64 4, ptr %13) #8
  call void @llvm.lifetime.end.p0(i64 64, ptr %12) #8
  %48 = load i64, ptr %6, align 8
  ret i64 %48
}